Certificate:
    Data:
        Version: 3 (0x2)
        Serial Number: 4098 (0x1002)
    Signature Algorithm: sha1WithRSAEncryption
        Issuer: C=GB, ST=Some-State, O=Internet Widgits Pty Ltd, CN=TLS Demo CA
        Validity
            Not Before: Jul  7 12:30:00 2015 GMT
            Not After : Jul  7 12:30:00 2020 GMT
        Subject: C=GB, ST=Some-State, O=Internet Widgits Pty Ltd, CN=Demo Client
        Subject Public Key Info:
            Public Key Algorithm: rsaEncryption
                Public-Key: (1536 bit)
                Modulus:
                    00:94:d3:3e:7c:e8:79:1a:54:06:89:d8:4a:6e:bd:
                    af:36:5c:b3:93:ef:c0:25:b7:e2:2c:2e:e7:8c:d9:
                    6f:84:a5:f3:2e:60:49:4e:91:3c:00:2c:fd:6e:a6:
                    4b:c1:fe:68:17:7f:23:93:fb:dc:0d:9e:66:52:65:
                    bf:3c:05:3f:34:47:ab:5a:b2:21:ef:1a:77:fc:b2:
                    d2:75:82:23:92:65:ed:bb:70:2d:fd:42:15:c5:b2:
                    22:b9:66:40:c5:8b:62:7c:66:79:f1:f4:95:97:6c:
                    78:e3:37:27:21:8b:16:0c:9d:7c:2c:a2:ef:02:c7:
                    5c:02:d9:0e:0b:c9:13:84:27:4c:64:c2:53:09:9c:
                    f2:14:8b:97:e3:20:2a:e3:cf:b3:e1:e9:72:8e:ec:
                    0e:2e:7a:fc:79:3a:ac:4b:7f:75:d9:9e:d1:22:a4:
                    ac:85:6b:2a:ec:05:61:1b:45:19:d8:72:39:0a:4b:
                    20:e0:89:6d:7c:75:03:b1:fe:10:a6:70:e5
                Exponent: 65537 (0x10001)
        X509v3 extensions:
            X509v3 Basic Constraints: 
                CA:FALSE
            Netscape Comment: 
                OpenSSL Generated Certificate
            X509v3 Subject Key Identifier: 
                10:7F:A0:DA:D6:4D:87:07:42:16:83:20:F3:0F:C1:FA:39:02:36:03
            X509v3 Authority Key Identifier: 
                keyid:F2:01:3C:C0:E5:77:84:DD:BA:45:67:6F:64:4A:DE:E3:07:78:0E:88

    Signature Algorithm: sha1WithRSAEncryption
         7e:eb:3b:93:64:cd:a9:45:12:4c:05:31:70:03:74:b2:56:c1:
         ae:93:96:05:df:dc:65:9b:26:6e:dc:3d:d5:94:ed:cd:1b:38:
         95:a1:e0:c2:a2:49:06:69:55:a2:6d:b0:67:ad:43:a5:e5:fa:
         c5:43:36:71:8e:bb:66:7c:90:f2:7c:4f:89:c1:95:bc:4e:5a:
         bf:10:74:dc:4d:4f:06:71:20:a5:fa:88:b0:1c:6c:56:60:bc:
         b6:89:5c:c9:e2:9c:e6:1a:41:f6:d2:4b:f1:1f:36:ef:a0:28:
         9c:a5:94:19:26:3f:d6:a0:e3:bf:7f:a2:cd:c2:e5:75:8f:cc:
         01:38
-----BEGIN CERTIFICATE-----
MIIC6DCCAlGgAwIBAgICEAIwDQYJKoZIhvcNAQEFBQAwWzELMAkGA1UEBhMCR0Ix
EzARBgNVBAgMClNvbWUtU3RhdGUxITAfBgNVBAoMGEludGVybmV0IFdpZGdpdHMg
UHR5IEx0ZDEUMBIGA1UEAwwLVExTIERlbW8gQ0EwHhcNMTUwNzA3MTIzMDAwWhcN
MjAwNzA3MTIzMDAwWjBbMQswCQYDVQQGEwJHQjETMBEGA1UECAwKU29tZS1TdGF0
ZTEhMB8GA1UECgwYSW50ZXJuZXQgV2lkZ2l0cyBQdHkgTHRkMRQwEgYDVQQDDAtE
ZW1vIENsaWVudDCB3zANBgkqhkiG9w0BAQEFAAOBzQAwgckCgcEAlNM+fOh5GlQG
idhKbr2vNlyzk+/AJbfiLC7njNlvhKXzLmBJTpE8ACz9bqZLwf5oF38jk/vcDZ5m
UmW/PAU/NEerWrIh7xp3/LLSdYIjkmXtu3At/UIVxbIiuWZAxYtifGZ58fSVl2x4
4zcnIYsWDJ18LKLvAsdcAtkOC8kThCdMZMJTCZzyFIuX4yAq48+z4elyjuwOLnr8
eTqsS3912Z7RIqSshWsq7AVhG0UZ2HI5Cksg4IltfHUDsf4QpnDlAgMBAAGjezB5
MAkGA1UdEwQCMAAwLAYJYIZIAYb4QgENBB8WHU9wZW5TU0wgR2VuZXJhdGVkIENl
cnRpZmljYXRlMB0GA1UdDgQWBBQQf6Da1k2HB0IWgyDzD8H6OQI2AzAfBgNVHSME
GDAWgBTyATzA5XeE3bpFZ29kSt7jB3gOiDANBgkqhkiG9w0BAQUFAAOBgQB+6zuT
ZM2pRRJMBTFwA3SyVsGuk5YF39xlmyZu3D3VlO3NGziVoeDCokkGaVWibbBnrUOl
5frFQzZxjrtmfJDyfE+JwZW8Tlq/EHTcTU8GcSCl+oiwHGxWYLy2iVzJ4pzmGkH2
0kvxHzbvoCicpZQZJj/WoOO/f6LNwuV1j8wBOA==
-----END CERTIFICATE-----
