Certificate:
    Data:
        Version: 3 (0x2)
        Serial Number: 743 (0x2e7)
    Signature Algorithm: sha256WithRSAEncryption
        Issuer: C=GB, ST=WestSussex, L=Littlehampton, O=Tibado, OU=TIB, CN=Tibado API CA (2015)
        Validity
            Not Before: May 27 09:16:24 2015 GMT
            Not After : May 24 09:16:24 2025 GMT
        Subject: C=GB, ST=WestSussex, O=Tibado, OU=TIB, CN=0000000000000440
        Subject Public Key Info:
            Public Key Algorithm: rsaEncryption
                Public-Key: (512 bit)
                Modulus:
                    00:b2:98:12:2f:e5:bf:e6:1e:73:9f:eb:21:8b:2b:
                    ed:a9:71:0a:f8:45:51:a3:63:70:57:09:f5:22:60:
                    00:55:d7:a3:42:4a:01:4d:ae:f6:a9:d1:42:69:5c:
                    f9:10:21:ca:12:e4:aa:06:c6:ec:75:ee:af:a1:eb:
                    e8:75:7c:eb:a1
                Exponent: 65537 (0x10001)
        X509v3 extensions:
            X509v3 Basic Constraints: 
                CA:FALSE
            X509v3 Key Usage: 
                Digital Signature, Non Repudiation, Key Encipherment
            Netscape Comment: 
                Tibado Generated Certificate
            X509v3 Subject Key Identifier: 
                E2:C9:6A:89:1E:28:83:21:FE:EA:31:BB:93:D1:01:E9:39:62:CD:21
            X509v3 Authority Key Identifier: 
                DirName:/C=GB/ST=WestSussex/L=Littlehampton/O=Tibado/OU=TIB/CN=Tibado API CA (2015)
                serial:83:A3:4B:D9:25:99:11:A3

    Signature Algorithm: sha256WithRSAEncryption
         a2:12:84:a9:81:ef:63:2c:c6:97:2c:6b:cc:7d:d6:70:42:97:
         f6:80:4f:80:91:29:2a:81:06:c7:14:03:c1:eb:bb:24:a9:1f:
         f4:fe:20:bf:ad:66:14:4f:b8:e8:a4:76:0f:fe:05:dc:30:0c:
         d1:0b:0d:5c:03:89:64:d1:0a:aa:5b:e4:49:ac:0d:cb:88:96:
         ff:cf:0e:b7:13:6d:d7:ea:f7:96:f6:57:ab:86:8b:83:f5:74:
         3d:c0:a7:53:1f:60:47:b5:a0:d3:18:3e:bc:25:36:93:5f:eb:
         21:7f:54:75:85:0b:e9:2a:d1:96:7d:4f:50:de:5f:31:55:b4:
         e3:d8:6c:51:1e:9f:ad:ed:31:ad:2a:27:79:ea:48:47:df:7a:
         59:7a:1a:2a:a1:dd:f3:10:52:cf:61:25:7c:40:e9:22:d5:73:
         22:20:7b:af:48:b1:b6:b4:51:0f:cb:a1:a4:b3:1f:21:7c:f7:
         5d:1f:7c:e1:b1:12:b3:a3:3b:ed:3d:f4:77:15:41:1d:1f:87:
         53:45:3a:f4:c4:4d:e6:9e:a7:90:6f:33:07:43:f3:cd:be:de:
         44:80:41:bf:1a:11:12:2a:59:74:e9:13:cb:dd:16:64:16:2e:
         cc:0a:05:f5:bb:5e:38:38:a0:ea:74:c3:3d:bd:ed:f6:53:1a:
         af:f8:0b:e1
-----BEGIN CERTIFICATE-----
MIIDhzCCAm+gAwIBAgICAucwDQYJKoZIhvcNAQELBQAweDELMAkGA1UEBhMCR0Ix
EzARBgNVBAgMCldlc3RTdXNzZXgxFjAUBgNVBAcMDUxpdHRsZWhhbXB0b24xDzAN
BgNVBAoMBlRpYmFkbzEMMAoGA1UECwwDVElCMR0wGwYDVQQDDBRUaWJhZG8gQVBJ
IENBICgyMDE1KTAeFw0xNTA1MjcwOTE2MjRaFw0yNTA1MjQwOTE2MjRaMFwxCzAJ
BgNVBAYTAkdCMRMwEQYDVQQIDApXZXN0U3Vzc2V4MQ8wDQYDVQQKDAZUaWJhZG8x
DDAKBgNVBAsMA1RJQjEZMBcGA1UEAwwQMDAwMDAwMDAwMDAwMDQ0MDBcMA0GCSqG
SIb3DQEBAQUAA0sAMEgCQQCymBIv5b/mHnOf6yGLK+2pcQr4RVGjY3BXCfUiYABV
16NCSgFNrvap0UJpXPkQIcoS5KoGxux17q+h6+h1fOuhAgMBAAGjgf4wgfswCQYD
VR0TBAIwADALBgNVHQ8EBAMCBeAwKwYJYIZIAYb4QgENBB4WHFRpYmFkbyBHZW5l
cmF0ZWQgQ2VydGlmaWNhdGUwHQYDVR0OBBYEFOLJaokeKIMh/uoxu5PRAek5Ys0h
MIGUBgNVHSMEgYwwgYmhfKR6MHgxCzAJBgNVBAYTAkdCMRMwEQYDVQQIDApXZXN0
U3Vzc2V4MRYwFAYDVQQHDA1MaXR0bGVoYW1wdG9uMQ8wDQYDVQQKDAZUaWJhZG8x
DDAKBgNVBAsMA1RJQjEdMBsGA1UEAwwUVGliYWRvIEFQSSBDQSAoMjAxNSmCCQCD
o0vZJZkRozANBgkqhkiG9w0BAQsFAAOCAQEAohKEqYHvYyzGlyxrzH3WcEKX9oBP
gJEpKoEGxxQDweu7JKkf9P4gv61mFE+46KR2D/4F3DAM0QsNXAOJZNEKqlvkSawN
y4iW/88OtxNt1+r3lvZXq4aLg/V0PcCnUx9gR7Wg0xg+vCU2k1/rIX9UdYUL6SrR
ln1PUN5fMVW049hsUR6fre0xrSoneepIR996WXoaKqHd8xBSz2ElfEDpItVzIiB7
r0ixtrRRD8uhpLMfIXz3XR984bESs6M77T30dxVBHR+HU0U69MRN5p6nkG8zB0Pz
zb7eRIBBvxoREipZdOkTy90WZBYuzAoF9bteODig6nTDPb3t9lMar/gL4Q==
-----END CERTIFICATE-----
